(lp1
(lp2
VF
aa(lp3
VA
aVD
aa(lp4
VH
aVC
aVM
aa(lp5
VA
aVD
aa(lp6
VG
aVO
aa(lp7
VA
aVL
aa(lp8
VA
aVC
aa(lp9
VJ
aa(lp10
VA
aVO
aa(lp11
VI
aVA
aVL
aa(lp12
VJ
aa(lp13
VN
aa(lp14
VB
aVG
aVP
aa(lp15
VA
aVD
aa(lp16
VB
aVV
aa(lp17
VU
aa(lp18
VA
aVH
aVN
aa(lp19
VA
aVD
aa(lp20
VC
aVI
aa(lp21
VA
aVG
aa(lp22
VB
aVA
aVT
aa(lp23
VA
aVG
aVO
aa(lp24
VE
aa(lp25
VA
aVD
aa(lp26
VH
aVM
aa(lp27
VA
aVD
aa(lp28
VF
aa(lp29
VA
aVB
aVR
aVT
aa(lp30
VF
aa(lp31
VA
aVD
aa(lp32
VU
aa(lp33
VB
aVE
aVQ
aa(lp34
VB
aVR
aVT
aa(lp35
VC
aVK
aa(lp36
VA
aVD
aa(lp37
VA
aVC
aa(lp38
VC
aVH
aa(lp39
VR
aVA
aVT
aVU
aa(lp40
VG
aVP
aa(lp41
VB
aVA
aVR
aa(lp42
VA
aVK
aa(lp43
VA
aVM
aa(lp44
VA
aVB
aa(lp45
VA
aVB
aa(lp46
VT
aVA
aVE
aVU
aa(lp47
VA
aa(lp48
VI
aVC
aVL
aa(lp49
VE
aa(lp50
VA
aVR
aVS
aa(lp51
VA
aVB
aa(lp52
VM
aa(lp53
VA
aVB
aa(lp54
VL
aa(lp55
VH
aVA
aVM
aa(lp56
VA
aa(lp57
VH
aVC
aVN
aa(lp58
VA
aVB
aVP
aa(lp59
VR
aVA
aVT
aa(lp60
VA
aVC
aa(lp61
VE
aa(lp62
VB
aVS
aa(lp63
VA
aVH
aa(lp64
VA
aVG
aVP
aa(lp65
VL
aa(lp66
VC
aVJ
aa(lp67
VC
aVJ
aa(lp68
VL
aa(lp69
VE
aVT
aVU
aa(lp70
VT
aVA
aVB
aVV
aa(lp71
VC
aVJ
aa(lp72
VQ
aa(lp73
VA
aVC
aa(lp74
VR
aVA
aVE
aVT
aa(lp75
VE
aVB
aVR
aa(lp76
VA
aVC
aVM
aa(lp77
VB
aVG
aVP
aa(lp78
VA
aVJ
aa(lp79
VC
aVH
aVM
aa(lp80
VB
aVF
aa(lp81
VA
aVC
aa(lp82
VA
aVH
aa(lp83
VE
aVB
aVR
aVT
aa(lp84
VA
aVD
aa(lp85
VC
aVJ
aa(lp86
VO
aa(lp87
VH
aa(lp88
VR
aa(lp89
VP
aa(lp90
VA
aa(lp91
VE
aVR
aVS
aa(lp92
VC
aVI
aVL
aa(lp93
VP
aa(lp94
VA
aVC
aa(lp95
VR
aa(lp96
VA
aVJ
aa(lp97
VB
aVE
aVR
aVT
aa(lp98
VB
aVT
aa(lp99
VR
aVU
aa(lp100
VB
aVS
aa(lp101
VM
aa(lp102
VB
aVG
aa(lp103
VE
aa(lp104
VA
aVB
aa(lp105
VB
aVE
aa(lp106
VA
aVB
aa(lp107
VB
aVG
aa(lp108
VL
aa(lp109
VA
aVC
aa(lp110
VE
aVT
aVU
aa(lp111
VH
aa(lp112
VA
aVD
aa(lp113
VC
aVI
aa(lp114
VH
aVA
aVN
aa(lp115
VM
aa(lp116
VA
aVB
aa(lp117
VA
aVC
aa(lp118
VA
aVU
aa(lp119
VA
aVG
aVO
aa(lp120
VA
aVK
aa(lp121
VG
aa(lp122
VU
aa(lp123
VH
aa(lp124
VG
aVO
aa(lp125
VI
aVA
aVK
aa(lp126
VG
aa(lp127
VE
aa(lp128
VE
aa(lp129
VA
aVG
aa(lp130
VI
aVK
aa(lp131
VT
aVR
aVB
aVV
aa(lp132
VA
aVO
aa(lp133
VA
aa(lp134
VA
aVK
aa(lp135
VT
aVA
aVV
aa(lp136
VC
aVL
aa(lp137
VA
aVC
aa(lp138
VR
aa(lp139
VA
aVD
aa(lp140
VE
aVT
aa(lp141
VA
aVC
aa(lp142
VA
aVD
aa(lp143
VA
aVB
aVR
aVV
aa(lp144
VC
aVI
aa(lp145
VE
aVS
aa(lp146
VE
aa(lp147
VA
aVR
aVB
aVS
aa(lp148
VA
aVM
aa(lp149
VA
aa(lp150
VT
aVB
aVU
aa(lp151
VE
aa(lp152
VB
aVA
aVR
aa(lp153
VA
aVB
aa(lp154
VA
aVM
aa(lp155
VA
aVR
aa(lp156
VI
aVA
aVL
aa(lp157
VR
aVE
aVT
aa(lp158
VJ
aa(lp159
VA
aVD
aa(lp160
VB
aVA
aVR
aa(lp161
VK
aa(lp162
VA
aVI
aa(lp163
VI
aa(lp164
VE
aVV
aa(lp165
VN
aa(lp166
VF
aa(lp167
VA
aVC
aVM
aa(lp168
VH
aa(lp169
VB
aVQ
aa(lp170
VN
aa(lp171
VG
aVP
aa(lp172
VU
aa(lp173
VA
aVG
aa(lp174
VA
aVB
aa(lp175
VA
aVD
aa(lp176
VR
aa(lp177
VB
aVE
aVA
aVS
aa(lp178
VC
aVK
aa(lp179
VA
aVL
aa(lp180
VA
aa(lp181
VA
aVR
aa(lp182
VB
aVQ
aa(lp183
VA
aVB
aa(lp184
VA
aVD
aa(lp185
VQ
aa(lp186
VA
aa(lp187
VT
aVU
aa(lp188
VA
aVC
aVN
aa(lp189
VC
aVK
aa(lp190
VS
aa(lp191
VC
aVH
aa(lp192
VH
aa(lp193
VR
aVV
aa(lp194
VB
aVA
aVV
aa(lp195
VA
aVI
aVL
aa(lp196
VA
aVJ
aa(lp197
VE
aVS
aa(lp198
VJ
aa(lp199
VC
aVA
aVM
aa(lp200
VE
aVA
aVQ
aa(lp201
VA
aVT
aa(lp202
VM
aa(lp203
VT
aVE
aVR
aVV
aa(lp204
VG
aa(lp205
VB
aVF
aa(lp206
VA
aVG
aVO
aa(lp207
VQ
aa(lp208
VT
aVV
aa(lp209
VC
aVI
aa(lp210
VA
aVB
aa(lp211
VA
aVE
aVT
aVU
aa(lp212
VC
aVH
aa(lp213
VA
aa(lp214
VC
aVM
aa(lp215
VQ
aa(lp216
VR
aVA
aVE
aVV
aa(lp217
VA
aVD
aa(lp218
VA
aVM
aa(lp219
VA
aVP
aa(lp220
VG
aa(lp221
VB
aVG
aa(lp222
VL
aa(lp223
VC
aVJ
aa(lp224
VB
aVE
aVR
aa(lp225
VE
aVA
aVR
aa(lp226
VA
aVQ
aa(lp227
VB
aVF
aa(lp228
VO
aa(lp229
VR
aVB
aVT
aa(lp230
VB
aVE
aVQ
aa(lp231
VE
aVB
aVQ
aa(lp232
VH
aa(lp233
VK
aa(lp234
VB
aVF
aa(lp235
VC
aVI
aa(lp236
VE
aVA
aVR
aa(lp237
VA
aa(lp238
VJ
aa(lp239
VB
aVF
aa(lp240
VR
aa(lp241
VE
aVT
aa(lp242
VA
aVE
aa(lp243
VL
aa(lp244
VE
aVB
aVR
aa(lp245
VB
aVE
aVU
aa(lp246
VI
aa(lp247
VA
aVB
aa(lp248
VA
aVB
aa(lp249
VB
aVF
aa(lp250
VG
aVO
aa(lp251
VA
aVO
aa(lp252
VH
aVC
aVM
aa(lp253
VJ
aa(lp254
VA
aVJ
aa(lp255
VA
aVC
aa(lp256
VR
aa(lp257
VA
aVJ
aa(lp258
VG
aVO
aa(lp259
VA
aVG
aVP
aa(lp260
VH
aa(lp261
VA
aVR
aVV
aa(lp262
VH
aa(lp263
VA
aVL
aa(lp264
VA
aVS
aa(lp265
VR
aa(lp266
VC
aVK
aa(lp267
VR
aVA
aVE
aVT
aa(lp268
VE
aVB
aVR
aa(lp269
VB
aVR
aVE
aVU
aa(lp270
VB
aVF
aa(lp271
VR
aVT
aa(lp272
VA
aVE
aa(lp273
VG
aa(lp274
VA
aVH
aa(lp275
VA
aa(lp276
VA
aVD
aa(lp277
VA
aVJ
aa(lp278
VC
aVH
aa(lp279
VA
aa(lp280
VB
aVE
aVA
aVV
aa(lp281
VA
aa(lp282
VF
aa(lp283
VP
aa(lp284
VA
aVB
aa(lp285
VA
aVS
aa(lp286
VG
aVO
aa(lp287
VA
aVF
aa(lp288
VG
aVB
aVP
aa(lp289
VA
aVM
aa(lp290
VE
aa(lp291
VA
aVD
aa(lp292
VC
aVL
aa(lp293
VI
aa(lp294
VG
aa(lp295
VJ
aa(lp296
VV
aa(lp297
VQ
aa(lp298
VA
aVL
aa(lp299
VT
aVV
aa(lp300
VE
aVA
aVU
aa(lp301
VI
aa(lp302
VG
aa(lp303
VE
aa(lp304
VA
aVH
aa(lp305
VU
aa(lp306
VK
aa(lp307
VA
aVF
aa(lp308
VA
aVB
aVR
aVS
aa(lp309
VA
aVM
aa(lp310
VA
aVM
aa(lp311
VA
aVC
aa(lp312
VA
aVI
aVL
aa(lp313
VA
aVC
aa(lp314
VT
aVV
aa(lp315
VH
aVC
aVM
aa(lp316
VE
aVR
aa(lp317
VE
aVS
aa(lp318
VC
aVJ
aa(lp319
VA
aa(lp320
VG
aa(lp321
VA
aVE
aVB
aVT
aa(lp322
VA
aVB
aa(lp323
VA
aVJ
aa(lp324
VA
aVE
aVR
aa(lp325
VA
aVR
aVU
aa(lp326
VI
aa(lp327
VJ
aa(lp328
VA
aa(lp329
VV
aa(lp330
VR
aVS
aa(lp331
VT
aa(lp332
VS
aa(lp333
VB
aVO
aa(lp334
VC
aVI
aa(lp335
VA
aVN
aa(lp336
VA
aVI
aa(lp337
VC
aVN
aa(lp338
VA
aa(lp339
VF
aa(lp340
VA
aVF
aa(lp341
VE
aVA
aVR
aa(lp342
VA
aVD
aa(lp343
VU
aa(lp344
VA
aVB
aVP
aa(lp345
VI
aVL
aa(lp346
VA
aVE
aVR
aVT
aa(lp347
VE
aVA
aVT
aa(lp348
VH
aVN
aa(lp349
VB
aVE
aa(lp350
VA
aVE
aa(lp351
VA
aVB
aa(lp352
VA
aa(lp353
VO
aa(lp354
VA
aVI
aa(lp355
VB
aVA
aVQ
aa(lp356
VB
aVE
aVQ
aa(lp357
VF
aa(lp358
VA
aVB
aa(lp359
VA
aVE
aa(lp360
VA
aVK
aa(lp361
VA
aVC
aa(lp362
VG
aa(lp363
VI
aVK
aa(lp364
VA
aVC
aa(lp365
VR
aa(lp366
VM
aa(lp367
VH
aa(lp368
VC
aVA
aVM
aa(lp369
VH
aa(lp370
VQ
aa(lp371
VC
aVA
aVM
aa(lp372
VA
aa(lp373
VE
aVA
aVR
aa(lp374
VB
aVG
aVP
aa(lp375
VA
aVC
aa(lp376
VJ
aa(lp377
VH
aa(lp378
VR
aa(lp379
VA
aVG
aVP
aa(lp380
VF
aa(lp381
VA
aVH
aVN
aa(lp382
VA
aVG
aVO
aa(lp383
VA
aVF
aa(lp384
VR
aVE
aVA
aVT
aa(lp385
VU
aa(lp386
VA
aVH
aVN
aa(lp387
VR
aVE
aVS
aa(lp388
VL
aa(lp389
VF
aa(lp390
VA
aVB
aa(lp391
VQ
aa(lp392
VG
aVA
aVO
aa(lp393
VS
aa(lp394
VA
aVC
aa(lp395
VQ
aa(lp396
VB
aVA
aVQ
aa(lp397
VB
aVP
aa(lp398
VA
aVB
aa(lp399
VR
aa(lp400
VR
aVB
aVA
aVV
aa(lp401
VH
aVC
aVN
aa.