(lp1
(lp2
VB
aVG
aa(lp3
VA
aVJ
aa(lp4
VA
aa(lp5
VB
aVU
aa(lp6
VR
aa(lp7
VN
aa(lp8
VT
aVB
aVA
aVU
aa(lp9
VA
aVC
aa(lp10
VI
aa(lp11
VA
aVE
aVR
aVT
aa(lp12
VE
aVU
aa(lp13
VB
aVF
aa(lp14
VB
aVE
aVS
aa(lp15
VR
aVE
aVT
aa(lp16
VH
aVM
aa(lp17
VA
aVE
aVR
aVT
aa(lp18
VA
aVF
aa(lp19
VB
aVA
aVU
aa(lp20
VE
aVB
aVR
aVT
aa(lp21
VA
aVE
aVQ
aa(lp22
VE
aa(lp23
VC
aVH
aa(lp24
VF
aa(lp25
VA
aVH
aVM
aa(lp26
VA
aVC
aa(lp27
VH
aVN
aa(lp28
VA
aVL
aa(lp29
VG
aa(lp30
VA
aVB
aa(lp31
VA
aVH
aa(lp32
VB
aVP
aa(lp33
VA
aVI
aa(lp34
VB
aVA
aVO
aa(lp35
VC
aVM
aa(lp36
VF
aa(lp37
VA
aVR
aa(lp38
VA
aVD
aa(lp39
VA
aVB
aVQ
aa(lp40
VG
aVO
aa(lp41
VE
aVA
aVQ
aa(lp42
VA
aVC
aa(lp43
VA
aa(lp44
VI
aVC
aVK
aa(lp45
VA
aa(lp46
VA
aVC
aa(lp47
VA
aVB
aa(lp48
VA
aVG
aa(lp49
VB
aVG
aVP
aa(lp50
VA
aVE
aa(lp51
VT
aa(lp52
VR
aVT
aa(lp53
VK
aa(lp54
VA
aVD
aa(lp55
VL
aa(lp56
VU
aa(lp57
VL
aa(lp58
VA
aVF
aa(lp59
VR
aVB
aVA
aVS
aa(lp60
VB
aVO
aa(lp61
VA
aa(lp62
VS
aa(lp63
VA
aVC
aVL
aa(lp64
VA
aVB
aVQ
aa(lp65
VB
aVO
aa(lp66
VH
aa(lp67
VA
aVC
aVM
aa(lp68
VH
aa(lp69
VA
aVG
aa(lp70
VE
aVA
aVS
aa(lp71
VA
aVF
aa(lp72
VC
aVA
aVM
aa(lp73
VC
aVA
aVK
aa(lp74
VG
aa(lp75
VA
aVF
aa(lp76
VP
aa(lp77
VN
aa(lp78
VA
aVE
aVV
aa(lp79
VA
aVB
aa(lp80
VA
aVB
aVR
aVS
aa(lp81
VL
aa(lp82
VA
aa(lp83
VE
aVT
aVV
aa(lp84
VG
aVA
aVO
aa(lp85
VA
aVG
aa(lp86
VL
aa(lp87
VA
aa(lp88
VA
aVB
aa(lp89
VI
aVC
aVK
aa(lp90
VB
aVA
aVE
aVV
aa(lp91
VI
aa(lp92
VE
aa(lp93
VG
aVP
aa(lp94
VJ
aa(lp95
VA
aVT
aVV
aa(lp96
VQ
aa(lp97
VA
aVB
aVU
aa(lp98
VU
aa(lp99
VH
aVM
aa(lp100
VA
aVG
aa(lp101
VU
aa(lp102
VH
aVN
aa(lp103
VA
aa(lp104
VE
aVB
aVU
aa(lp105
VA
aVN
aa(lp106
VC
aVH
aVN
aa(lp107
VP
aa(lp108
VB
aVF
aa(lp109
VB
aVA
aVO
aa(lp110
VK
aa(lp111
VB
aVR
aa(lp112
VA
aVU
aa(lp113
VA
aVK
aa(lp114
VA
aa(lp115
VI
aa(lp116
VB
aVF
aa(lp117
VH
aVA
aVM
aa(lp118
VM
aa(lp119
VP
aa(lp120
VO
aa(lp121
VA
aVB
aa(lp122
VB
aVG
aa(lp123
VA
aVD
aa(lp124
VA
aVC
aa(lp125
VG
aVP
aa(lp126
VA
aVH
aa(lp127
VE
aVR
aa(lp128
VA
aVG
aa(lp129
VR
aVB
aVA
aVT
aa(lp130
VI
aVC
aVL
aa(lp131
VA
aVH
aVM
aa(lp132
VC
aVA
aVM
aa(lp133
VO
aa(lp134
VH
aa(lp135
VN
aa(lp136
VJ
aa(lp137
VR
aa(lp138
VI
aa(lp139
VB
aVG
aa(lp140
VA
aVD
aa(lp141
VA
aVE
aa(lp142
VU
aa(lp143
VJ
aa(lp144
VA
aVH
aa(lp145
VB
aVG
aa(lp146
VP
aa(lp147
VI
aVL
aa(lp148
VE
aVB
aVS
aa(lp149
VG
aVA
aVP
aa(lp150
VA
aVJ
aa(lp151
VA
aVB
aa(lp152
VA
aVI
aa(lp153
VH
aa(lp154
VA
aa(lp155
VG
aa(lp156
VH
aVA
aVN
aa(lp157
VA
aVB
aa(lp158
VG
aVO
aa(lp159
VH
aVN
aa(lp160
VA
aVE
aVR
aa(lp161
VE
aa(lp162
VB
aVF
aa(lp163
VP
aa(lp164
VR
aVA
aVS
aa(lp165
VA
aVC
aVM
aa(lp166
VA
aVB
aa(lp167
VE
aVA
aVR
aVU
aa(lp168
VG
aVB
aVO
aa(lp169
VI
aa(lp170
VA
aVB
aa(lp171
VT
aVU
aa(lp172
VC
aVA
aVN
aa(lp173
VA
aVP
aa(lp174
VG
aVB
aVP
aa(lp175
VA
aa(lp176
VA
aVM
aa(lp177
VA
aVI
aa(lp178
VA
aVU
aa(lp179
VG
aVB
aVP
aa(lp180
VB
aVE
aa(lp181
VE
aa(lp182
VC
aVK
aa(lp183
VA
aVC
aa(lp184
VT
aa(lp185
VE
aVB
aVR
aVT
aa(lp186
VQ
aa(lp187
VL
aa(lp188
VC
aVI
aa(lp189
VA
aa(lp190
VJ
aa(lp191
VA
aVG
aVO
aa(lp192
VN
aa(lp193
VA
aVC
aa(lp194
VP
aa(lp195
VS
aa(lp196
VA
aVD
aa(lp197
VA
aVF
aa(lp198
VI
aVK
aa(lp199
VI
aa(lp200
VC
aVN
aa(lp201
VA
aVC
aa(lp202
VF
aa(lp203
VK
aa(lp204
VA
aVP
aa(lp205
VU
aa(lp206
VC
aVI
aa(lp207
VA
aVD
aa(lp208
VC
aVL
aa(lp209
VR
aVS
aa(lp210
VI
aVK
aa(lp211
VB
aVE
aVT
aa(lp212
VH
aVA
aVN
aa(lp213
VH
aVA
aVM
aa(lp214
VK
aa(lp215
VA
aVG
aa(lp216
VA
aVC
aa(lp217
VA
aVD
aa(lp218
VH
aVA
aVN
aa(lp219
VC
aVA
aVN
aa(lp220
VA
aVE
aa(lp221
VB
aVF
aa(lp222
VE
aa(lp223
VB
aVR
aa(lp224
VL
aa(lp225
VG
aa(lp226
VA
aVC
aa(lp227
VB
aVR
aVA
aVT
aa(lp228
VV
aa(lp229
VJ
aa(lp230
VA
aVH
aa(lp231
VH
aVN
aa(lp232
VA
aVD
aa(lp233
VA
aVD
aa(lp234
VA
aa(lp235
VA
aVE
aVR
aa(lp236
VJ
aa(lp237
VO
aa(lp238
VB
aVT
aa(lp239
VF
aa(lp240
VA
aa(lp241
VS
aa(lp242
VH
aVC
aVM
aa(lp243
VI
aa(lp244
VA
aVP
aa(lp245
VB
aVF
aa(lp246
VR
aa(lp247
VP
aa(lp248
VA
aVM
aa(lp249
VA
aVE
aVS
aa(lp250
VA
aVC
aa(lp251
VJ
aa.